target datalayout = "e-m:e-p270:32:32-p271:32:32-p272:64:64-i64:64-i128:128-f80:128-n8:16:32:64-S128"
target triple = "x86_64-pc-linux-gnu"

%"class.icu_77::MessagePattern" = type <{ %"class.icu_77::UObject", i32, [4 x i8], %"class.icu_77::UnicodeString", ptr, ptr, i32, [4 x i8], ptr, ptr, i32, i8, i8, i8, i8 }>
%"class.icu_77::UObject" = type { ptr }
%"class.icu_77::UnicodeString" = type { %"class.icu_77::Replaceable", %"union.icu_77::UnicodeString::StackBufferOrFields" }
%"class.icu_77::Replaceable" = type { %"class.icu_77::UObject" }
%"union.icu_77::UnicodeString::StackBufferOrFields" = type { %struct.anon.0, [32 x i8] }
%struct.anon.0 = type { i16, i32, i32, ptr }
%"class.icu_77::MessagePatternList" = type { %"class.icu_77::MaybeStackArray" }
%"class.icu_77::MaybeStackArray" = type { ptr, i32, i8, [32 x %"class.icu_77::MessagePattern::Part"] }
%"class.icu_77::MessagePattern::Part" = type { i32, i32, i16, i16, i32 }

; Function Attrs: mustprogress nounwind uwtable
define linkonce_odr noundef nonnull align 4 dereferenceable(16) ptr @_ZN6icu_7715MaybeStackArrayINS_14MessagePattern4PartELi32EEixEl(ptr noundef nonnull align 8 dereferenceable(528) %0, i64 noundef %1) #5 comdat align 2 {
  %3 = alloca ptr, align 8
  %4 = alloca i64, align 8
  store ptr %0, ptr %3, align 8, !tbaa !42
  store i64 %1, ptr %4, align 8, !tbaa !87
  %5 = load ptr, ptr %3, align 8
  %6 = getelementptr inbounds nuw %"class.icu_77::MaybeStackArray", ptr %5, i32 0, i32 0
  %7 = load ptr, ptr %6, align 8, !tbaa !44
  %8 = load i64, ptr %4, align 8, !tbaa !87
  %9 = getelementptr inbounds %"class.icu_77::MessagePattern::Part", ptr %7, i64 %8
  ret ptr %9
}

; Function Attrs: mustprogress uwtable
define noundef signext i8 @_ZN6icu_7714MessagePattern23inTopLevelChoiceMessageEi22UMessagePatternArgType(ptr noundef nonnull align 8 dereferenceable(127) %0, i32 noundef %1, i32 noundef %2) #0 align 2 {
  %4 = alloca ptr, align 8
  %5 = alloca i32, align 4
  %6 = alloca i32, align 4
  store ptr %0, ptr %4, align 8, !tbaa !3
  store i32 %1, ptr %5, align 4, !tbaa !48
  store i32 %2, ptr %6, align 4, !tbaa !61
  %7 = load ptr, ptr %4, align 8
  %8 = load i32, ptr %5, align 4, !tbaa !48
  %9 = icmp eq i32 %8, 1
  br i1 %9, label %10, label %21

10:                                               ; preds = %3
  %11 = load i32, ptr %6, align 4, !tbaa !61
  %12 = icmp eq i32 %11, 2
  br i1 %12, label %13, label %21

13:                                               ; preds = %10
  %14 = getelementptr inbounds nuw %"class.icu_77::MessagePattern", ptr %7, i32 0, i32 4
  %15 = load ptr, ptr %14, align 8, !tbaa !22
  %16 = getelementptr inbounds nuw %"class.icu_77::MessagePatternList", ptr %15, i32 0, i32 0
  %17 = call noundef nonnull align 4 dereferenceable(16) ptr @_ZN6icu_7715MaybeStackArrayINS_14MessagePattern4PartELi32EEixEl(ptr noundef nonnull align 8 dereferenceable(528) %16, i64 noundef 0)
  %18 = getelementptr inbounds nuw %"class.icu_77::MessagePattern::Part", ptr %17, i32 0, i32 0
  %19 = load i32, ptr %18, align 4, !tbaa !71
  %20 = icmp ne i32 %19, 0
  br label %21

21:                                               ; preds = %13, %10, %3
  %22 = phi i1 [ false, %10 ], [ false, %3 ], [ %20, %13 ]
  %23 = zext i1 %22 to i8
  ret i8 %23
}