; Function Attrs: mustprogress nofree norecurse nosync nounwind willreturn memory(read, inaccessiblemem: none) uwtable
define noundef signext range(i8 0, 2) i8 @_ZN6icu_7714MessagePattern23inTopLevelChoiceMessageEi22UMessagePatternArgType(ptr noundef nonnull readonly align 8 captures(none) dereferenceable(127) %0, i32 noundef %1, i32 noundef %2) local_unnamed_addr #8 align 2 {
  %4 = icmp eq i32 %1, 1
  %5 = icmp eq i32 %2, 2
  %or.cond = and i1 %4, %5
  br i1 %or.cond, label %6, label %13

6:                                                ; preds = %3
  %7 = getelementptr inbounds nuw i8, ptr %0, i64 80
  %8 = load ptr, ptr %7, align 8, !tbaa !22
  %9 = load ptr, ptr %8, align 8, !tbaa !23
  %10 = load i32, ptr %9, align 4, !tbaa !44
  %11 = icmp ne i32 %10, 0
  %12 = zext i1 %11 to i8
  br label %13

13:                                               ; preds = %6, %3
  %14 = phi i8 [ 0, %3 ], [ %12, %6 ]
  ret i8 %14
}